target datalayout = "e-m:e-p270:32:32-p271:32:32-p272:64:64-i64:64-i128:128-f80:128-n8:16:32:64-S128"
target triple = "x86_64-pc-linux-gnu"

%class.SaveMeshAttributesDialog = type { %class.QDialog, ptr, ptr, i32, i32, i32, i32, %class.RichParameterList, %"class.std::vector.19", ptr, ptr }
%class.QDialog = type { %class.QWidget }
%class.QWidget = type { %class.QObject, %class.QPaintDevice, ptr }
%class.QObject = type { ptr, %class.QScopedPointer }
%class.QScopedPointer = type { ptr }
%class.QPaintDevice = type { ptr, i16, ptr }
%class.RichParameterList = type { %"class.std::__cxx11::list" }
%"class.std::__cxx11::list" = type { %"class.std::__cxx11::_List_base" }
%"class.std::__cxx11::_List_base" = type { %"struct.std::__cxx11::_List_base<RichParameter *, std::allocator<RichParameter *>>::_List_impl" }
%"struct.std::__cxx11::_List_base<RichParameter *, std::allocator<RichParameter *>>::_List_impl" = type { %"struct.std::__detail::_List_node_header" }
%"struct.std::__detail::_List_node_header" = type { %"struct.std::__detail::_List_node_base", i64 }
%"struct.std::__detail::_List_node_base" = type { ptr, ptr }
%"class.std::vector.19" = type { %"struct.std::_Vector_base.20" }
%"struct.std::_Vector_base.20" = type { %"struct.std::_Vector_base<std::__cxx11::basic_string<char>, std::allocator<std::__cxx11::basic_string<char>>>::_Vector_impl" }
%"struct.std::_Vector_base<std::__cxx11::basic_string<char>, std::allocator<std::__cxx11::basic_string<char>>>::_Vector_impl" = type { %"struct.std::_Vector_base<std::__cxx11::basic_string<char>, std::allocator<std::__cxx11::basic_string<char>>>::_Vector_impl_data" }
%"struct.std::_Vector_base<std::__cxx11::basic_string<char>, std::allocator<std::__cxx11::basic_string<char>>>::_Vector_impl_data" = type { ptr, ptr, ptr }
%class.Ui_SaveMeshAttributesDialog = type { ptr, ptr, ptr, ptr, ptr, ptr, ptr, ptr, ptr, ptr, ptr, ptr, ptr, ptr, ptr, ptr, ptr, ptr, ptr, ptr, ptr, ptr, ptr, ptr, ptr, ptr, ptr, ptr, ptr, ptr, ptr, ptr, ptr, ptr, ptr, ptr, ptr, ptr, ptr, ptr, ptr, ptr, ptr, ptr, ptr, ptr, ptr }

; Function Attrs: mustprogress uwtable
define void @_ZN24SaveMeshAttributesDialog21on_NoneButton_clickedEv(ptr noundef nonnull align 8 dereferenceable(144) %0) #5 align 2 {
  %2 = alloca ptr, align 8
  store ptr %0, ptr %2, align 8
  %3 = load ptr, ptr %2, align 8
  %4 = getelementptr inbounds %class.SaveMeshAttributesDialog, ptr %3, i32 0, i32 1
  %5 = load ptr, ptr %4, align 8
  %6 = getelementptr inbounds %class.Ui_SaveMeshAttributesDialog, ptr %5, i32 0, i32 6
  %7 = load ptr, ptr %6, align 8
  call void @_ZN15QAbstractButton10setCheckedEb(ptr noundef nonnull align 8 dereferenceable(48) %7, i1 noundef zeroext false)
  %8 = getelementptr inbounds %class.SaveMeshAttributesDialog, ptr %3, i32 0, i32 1
  %9 = load ptr, ptr %8, align 8
  %10 = getelementptr inbounds %class.Ui_SaveMeshAttributesDialog, ptr %9, i32 0, i32 4
  %11 = load ptr, ptr %10, align 8
  call void @_ZN15QAbstractButton10setCheckedEb(ptr noundef nonnull align 8 dereferenceable(48) %11, i1 noundef zeroext false)
  %12 = getelementptr inbounds %class.SaveMeshAttributesDialog, ptr %3, i32 0, i32 1
  %13 = load ptr, ptr %12, align 8
  %14 = getelementptr inbounds %class.Ui_SaveMeshAttributesDialog, ptr %13, i32 0, i32 5
  %15 = load ptr, ptr %14, align 8
  call void @_ZN15QAbstractButton10setCheckedEb(ptr noundef nonnull align 8 dereferenceable(48) %15, i1 noundef zeroext false)
  %16 = getelementptr inbounds %class.SaveMeshAttributesDialog, ptr %3, i32 0, i32 1
  %17 = load ptr, ptr %16, align 8
  %18 = getelementptr inbounds %class.Ui_SaveMeshAttributesDialog, ptr %17, i32 0, i32 8
  %19 = load ptr, ptr %18, align 8
  call void @_ZN15QAbstractButton10setCheckedEb(ptr noundef nonnull align 8 dereferenceable(48) %19, i1 noundef zeroext false)
  %20 = getelementptr inbounds %class.SaveMeshAttributesDialog, ptr %3, i32 0, i32 1
  %21 = load ptr, ptr %20, align 8
  %22 = getelementptr inbounds %class.Ui_SaveMeshAttributesDialog, ptr %21, i32 0, i32 7
  %23 = load ptr, ptr %22, align 8
  call void @_ZN15QAbstractButton10setCheckedEb(ptr noundef nonnull align 8 dereferenceable(48) %23, i1 noundef zeroext false)
  %24 = getelementptr inbounds %class.SaveMeshAttributesDialog, ptr %3, i32 0, i32 1
  %25 = load ptr, ptr %24, align 8
  %26 = getelementptr inbounds %class.Ui_SaveMeshAttributesDialog, ptr %25, i32 0, i32 9
  %27 = load ptr, ptr %26, align 8
  call void @_ZN15QAbstractButton10setCheckedEb(ptr noundef nonnull align 8 dereferenceable(48) %27, i1 noundef zeroext false)
  %28 = getelementptr inbounds %class.SaveMeshAttributesDialog, ptr %3, i32 0, i32 1
  %29 = load ptr, ptr %28, align 8
  %30 = getelementptr inbounds %class.Ui_SaveMeshAttributesDialog, ptr %29, i32 0, i32 15
  %31 = load ptr, ptr %30, align 8
  call void @_ZN15QAbstractButton10setCheckedEb(ptr noundef nonnull align 8 dereferenceable(48) %31, i1 noundef zeroext false)
  %32 = getelementptr inbounds %class.SaveMeshAttributesDialog, ptr %3, i32 0, i32 1
  %33 = load ptr, ptr %32, align 8
  %34 = getelementptr inbounds %class.Ui_SaveMeshAttributesDialog, ptr %33, i32 0, i32 13
  %35 = load ptr, ptr %34, align 8
  call void @_ZN15QAbstractButton10setCheckedEb(ptr noundef nonnull align 8 dereferenceable(48) %35, i1 noundef zeroext false)
  %36 = getelementptr inbounds %class.SaveMeshAttributesDialog, ptr %3, i32 0, i32 1
  %37 = load ptr, ptr %36, align 8
  %38 = getelementptr inbounds %class.Ui_SaveMeshAttributesDialog, ptr %37, i32 0, i32 16
  %39 = load ptr, ptr %38, align 8
  call void @_ZN15QAbstractButton10setCheckedEb(ptr noundef nonnull align 8 dereferenceable(48) %39, i1 noundef zeroext false)
  %40 = getelementptr inbounds %class.SaveMeshAttributesDialog, ptr %3, i32 0, i32 1
  %41 = load ptr, ptr %40, align 8
  %42 = getelementptr inbounds %class.Ui_SaveMeshAttributesDialog, ptr %41, i32 0, i32 14
  %43 = load ptr, ptr %42, align 8
  call void @_ZN15QAbstractButton10setCheckedEb(ptr noundef nonnull align 8 dereferenceable(48) %43, i1 noundef zeroext false)
  %44 = getelementptr inbounds %class.SaveMeshAttributesDialog, ptr %3, i32 0, i32 1
  %45 = load ptr, ptr %44, align 8
  %46 = getelementptr inbounds %class.Ui_SaveMeshAttributesDialog, ptr %45, i32 0, i32 20
  %47 = load ptr, ptr %46, align 8
  call void @_ZN15QAbstractButton10setCheckedEb(ptr noundef nonnull align 8 dereferenceable(48) %47, i1 noundef zeroext false)
  %48 = getelementptr inbounds %class.SaveMeshAttributesDialog, ptr %3, i32 0, i32 1
  %49 = load ptr, ptr %48, align 8
  %50 = getelementptr inbounds %class.Ui_SaveMeshAttributesDialog, ptr %49, i32 0, i32 22
  %51 = load ptr, ptr %50, align 8
  call void @_ZN15QAbstractButton10setCheckedEb(ptr noundef nonnull align 8 dereferenceable(48) %51, i1 noundef zeroext false)
  %52 = getelementptr inbounds %class.SaveMeshAttributesDialog, ptr %3, i32 0, i32 1
  %53 = load ptr, ptr %52, align 8
  %54 = getelementptr inbounds %class.Ui_SaveMeshAttributesDialog, ptr %53, i32 0, i32 21
  %55 = load ptr, ptr %54, align 8
  call void @_ZN15QAbstractButton10setCheckedEb(ptr noundef nonnull align 8 dereferenceable(48) %55, i1 noundef zeroext false)
  %56 = getelementptr inbounds %class.SaveMeshAttributesDialog, ptr %3, i32 0, i32 1
  %57 = load ptr, ptr %56, align 8
  %58 = getelementptr inbounds %class.Ui_SaveMeshAttributesDialog, ptr %57, i32 0, i32 41
  %59 = load ptr, ptr %58, align 8
  call void @_ZN15QAbstractButton10setCheckedEb(ptr noundef nonnull align 8 dereferenceable(48) %59, i1 noundef zeroext false)
  ret void
}